target datalayout = "e-m:e-p270:32:32-p271:32:32-p272:64:64-i64:64-i128:128-f80:128-n8:16:32:64-S128"
target triple = "x86_64-pc-linux-gnu"

; Function Attrs: nounwind uwtable
define i32 @ossl_ec_check_curve_allowed(ptr noundef %0) #0 {
  %2 = alloca i32, align 4
  %3 = alloca ptr, align 8
  %4 = alloca ptr, align 8
  %5 = alloca i32, align 4
  %6 = alloca i32, align 4
  store ptr %0, ptr %3, align 8, !tbaa !14
  call void @llvm.lifetime.start.p0(i64 8, ptr %4) #3
  call void @llvm.lifetime.start.p0(i64 4, ptr %5) #3
  %7 = load ptr, ptr %3, align 8, !tbaa !14
  %8 = call i32 @EC_GROUP_get_curve_name(ptr noundef %7)
  store i32 %8, ptr %5, align 4, !tbaa !8
  %9 = load i32, ptr %5, align 4, !tbaa !8
  %10 = icmp eq i32 %9, 0
  br i1 %10, label %11, label %12

11:                                               ; preds = %1
  store i32 0, ptr %2, align 4
  store i32 1, ptr %6, align 4
  br label %19

12:                                               ; preds = %1
  %13 = load i32, ptr %5, align 4, !tbaa !8
  %14 = call ptr @EC_curve_nid2nist(i32 noundef %13)
  store ptr %14, ptr %4, align 8, !tbaa !16
  %15 = load ptr, ptr %4, align 8, !tbaa !16
  %16 = icmp eq ptr %15, null
  br i1 %16, label %17, label %18

17:                                               ; preds = %12
  store i32 0, ptr %2, align 4
  store i32 1, ptr %6, align 4
  br label %19

18:                                               ; preds = %12
  store i32 1, ptr %2, align 4
  store i32 1, ptr %6, align 4
  br label %19

19:                                               ; preds = %18, %17, %11
  call void @llvm.lifetime.end.p0(i64 4, ptr %5) #3
  call void @llvm.lifetime.end.p0(i64 8, ptr %4) #3
  %20 = load i32, ptr %2, align 4
  ret i32 %20
}