; Function Attrs: nounwind uwtable
define range(i32 0, 2) i32 @ossl_ec_check_curve_allowed(ptr noundef %0) local_unnamed_addr #0 {
  %2 = tail call i32 @EC_GROUP_get_curve_name(ptr noundef %0) #3
  %3 = icmp eq i32 %2, 0
  br i1 %3, label %7, label %4

4:                                                ; preds = %1
  %5 = tail call ptr @EC_curve_nid2nist(i32 noundef %2) #3
  %6 = icmp ne ptr %5, null
  %. = zext i1 %6 to i32
  br label %7

7:                                                ; preds = %4, %1
  %.0 = phi i32 [ 0, %1 ], [ %., %4 ]
  ret i32 %.0
}